; Function Attrs: mustprogress nofree norecurse nosync nounwind willreturn memory(read, inaccessiblemem: none) uwtable
define ptr @Abc_NodeFanin0Copy(ptr noundef readonly captures(none) %0, ptr noundef readonly captures(none) %1, ptr noundef readonly captures(none) %2, i32 noundef %3) local_unnamed_addr #0 {
  %5 = getelementptr i8, ptr %2, i64 16
  %.val = load ptr, ptr %5, align 8, !tbaa !3
  %6 = shl nsw i32 %3, 1
  %7 = sext i32 %6 to i64
  %8 = getelementptr inbounds i32, ptr %.val, i64 %7
  %9 = load i32, ptr %8, align 4, !tbaa !10
  %10 = ashr i32 %9, 1
  %11 = getelementptr i8, ptr %1, i64 8
  %.val6 = load ptr, ptr %11, align 8, !tbaa !11
  %12 = sext i32 %10 to i64
  %13 = getelementptr inbounds i32, ptr %.val6, i64 %12
  %14 = load i32, ptr %13, align 4, !tbaa !10
  %15 = xor i32 %14, %9
  %16 = getelementptr i8, ptr %0, i64 32
  %.val7 = load ptr, ptr %16, align 8, !tbaa !13
  %17 = getelementptr i8, ptr %.val7, i64 8
  %.val7.val = load ptr, ptr %17, align 8, !tbaa !28
  %18 = ashr i32 %14, 1
  %19 = sext i32 %18 to i64
  %20 = getelementptr inbounds ptr, ptr %.val7.val, i64 %19
  %21 = load ptr, ptr %20, align 8, !tbaa !30
  %22 = and i32 %15, 1
  %23 = ptrtoint ptr %21 to i64
  %24 = zext nneg i32 %22 to i64
  %25 = xor i64 %23, %24
  %26 = inttoptr i64 %25 to ptr
  ret ptr %26
}